target datalayout = "e-m:e-p270:32:32-p271:32:32-p272:64:64-i64:64-i128:128-f80:128-n8:16:32:64-S128"
target triple = "x86_64-pc-linux-gnu"

%"class.open_spiel::dots_and_boxes::Move" = type { i32, i32, i32, i32, i32 }

; Function Attrs: mustprogress nounwind uwtable
define noundef i32 @_ZN10open_spiel14dots_and_boxes4Move17GetCellBelowRightEv(ptr noundef nonnull align 4 dereferenceable(20) %0) #5 align 2 {
  %2 = alloca i32, align 4
  %3 = alloca ptr, align 8
  store ptr %0, ptr %3, align 8
  %4 = load ptr, ptr %3, align 8
  %5 = getelementptr inbounds nuw %"class.open_spiel::dots_and_boxes::Move", ptr %4, i32 0, i32 0
  %6 = load i32, ptr %5, align 4
  %7 = getelementptr inbounds nuw %"class.open_spiel::dots_and_boxes::Move", ptr %4, i32 0, i32 3
  %8 = load i32, ptr %7, align 4
  %9 = icmp eq i32 %6, %8
  br i1 %9, label %16, label %10

10:                                               ; preds = %1
  %11 = getelementptr inbounds nuw %"class.open_spiel::dots_and_boxes::Move", ptr %4, i32 0, i32 1
  %12 = load i32, ptr %11, align 4
  %13 = getelementptr inbounds nuw %"class.open_spiel::dots_and_boxes::Move", ptr %4, i32 0, i32 4
  %14 = load i32, ptr %13, align 4
  %15 = icmp eq i32 %12, %14
  br i1 %15, label %16, label %17

16:                                               ; preds = %10, %1
  store i32 -1, ptr %2, align 4
  br label %29

17:                                               ; preds = %10
  %18 = getelementptr inbounds nuw %"class.open_spiel::dots_and_boxes::Move", ptr %4, i32 0, i32 0
  %19 = load i32, ptr %18, align 4
  %20 = add nsw i32 %19, 1
  %21 = getelementptr inbounds nuw %"class.open_spiel::dots_and_boxes::Move", ptr %4, i32 0, i32 4
  %22 = load i32, ptr %21, align 4
  %23 = add nsw i32 %22, 1
  %24 = mul nsw i32 %20, %23
  %25 = getelementptr inbounds nuw %"class.open_spiel::dots_and_boxes::Move", ptr %4, i32 0, i32 1
  %26 = load i32, ptr %25, align 4
  %27 = add nsw i32 %26, 1
  %28 = add nsw i32 %24, %27
  store i32 %28, ptr %2, align 4
  br label %29

29:                                               ; preds = %17, %16
  %30 = load i32, ptr %2, align 4
  ret i32 %30
}