; Function Attrs: mustprogress nofree norecurse nosync nounwind willreturn memory(argmem: read) uwtable
define noundef i32 @_ZN10open_spiel14dots_and_boxes4Move17GetCellBelowRightEv(ptr nocapture noundef nonnull readonly align 4 dereferenceable(20) %0) local_unnamed_addr #7 align 2 {
  %2 = load i32, ptr %0, align 4
  %3 = getelementptr inbounds nuw i8, ptr %0, i64 12
  %4 = load i32, ptr %3, align 4
  %5 = icmp eq i32 %2, %4
  br i1 %5, label %18, label %6

6:                                                ; preds = %1
  %7 = getelementptr inbounds nuw i8, ptr %0, i64 4
  %8 = load i32, ptr %7, align 4
  %9 = getelementptr inbounds nuw i8, ptr %0, i64 16
  %10 = load i32, ptr %9, align 4
  %11 = icmp eq i32 %8, %10
  br i1 %11, label %18, label %12

12:                                               ; preds = %6
  %13 = add nsw i32 %2, 1
  %14 = add nsw i32 %10, 1
  %15 = mul nsw i32 %14, %13
  %16 = add nsw i32 %8, 1
  %17 = add nsw i32 %16, %15
  br label %18

18:                                               ; preds = %1, %6, %12
  %.0 = phi i32 [ %17, %12 ], [ -1, %6 ], [ -1, %1 ]
  ret i32 %.0
}